; Function Attrs: nounwind sspstrong uwtable
define internal i64 @ossl_ocspcid_get_serial(i64 noundef %0) #0 {
  %2 = alloca ptr, align 8
  call void @llvm.lifetime.start.p0(i64 8, ptr nonnull %2) #5
  %3 = tail call ptr @rb_check_typeddata(i64 noundef %0, ptr noundef nonnull @ossl_ocsp_certid_type) #5
  %.not = icmp eq ptr %3, null
  br i1 %.not, label %4, label %6

4:                                                ; preds = %1
  %5 = load i64, ptr @rb_eRuntimeError, align 8, !tbaa !6
  tail call void (i64, ptr, ...) @ossl_raise(i64 noundef %5, ptr noundef nonnull @.str.77) #6
  unreachable

6:                                                ; preds = %1
  %7 = call i32 @OCSP_id_get0_info(ptr noundef null, ptr noundef null, ptr noundef null, ptr noundef nonnull %2, ptr noundef nonnull %3) #5
  %8 = load ptr, ptr %2, align 8, !tbaa !62
  %9 = call i64 @asn1integer_to_num(ptr noundef %8) #5
  call void @llvm.lifetime.end.p0(i64 8, ptr nonnull %2) #5
  ret i64 %9
}